target datalayout = "e-m:e-p270:32:32-p271:32:32-p272:64:64-i64:64-i128:128-f80:128-n8:16:32:64-S128"
target triple = "x86_64-pc-linux-gnu"

%struct.__va_list_tag = type { i32, i32, ptr, ptr }

; Function Attrs: mustprogress uwtable
define linkonce_odr dso_local void @_ZN14V3OutFormatter4putsEPKc(ptr noundef nonnull align 8 dereferenceable(164) %0, ptr noundef %1) #5 comdat align 2 {
  %3 = alloca ptr, align 8
  %4 = alloca ptr, align 8
  store ptr %0, ptr %3, align 8, !tbaa !144
  store ptr %1, ptr %4, align 8, !tbaa !35
  %5 = load ptr, ptr %3, align 8
  %6 = load ptr, ptr %4, align 8, !tbaa !35
  call void @_ZN14V3OutFormatter5putnsEPK7AstNodePKc(ptr noundef nonnull align 8 dereferenceable(164) %5, ptr noundef null, ptr noundef %6)
  ret void
}

; Function Attrs: mustprogress uwtable
define dso_local void @_ZN14V3OutFormatter6printfEPKcz(ptr noundef nonnull align 8 dereferenceable(164) %0, ptr noundef %1, ...) #5 align 2 {
  %3 = alloca ptr, align 8
  %4 = alloca ptr, align 8
  %5 = alloca i64, align 8
  %6 = alloca [5000 x i8], align 16
  %7 = alloca [1 x %struct.__va_list_tag], align 16
  store ptr %0, ptr %3, align 8, !tbaa !144
  store ptr %1, ptr %4, align 8, !tbaa !35
  %8 = load ptr, ptr %3, align 8
  call void @llvm.lifetime.start.p0(i64 8, ptr %5) #3
  store i64 5000, ptr %5, align 8, !tbaa !96
  call void @llvm.lifetime.start.p0(i64 5000, ptr %6) #3
  call void @llvm.lifetime.start.p0(i64 24, ptr %7) #3
  %9 = getelementptr inbounds [1 x %struct.__va_list_tag], ptr %7, i64 0, i64 0
  call void @llvm.va_start.p0(ptr %9)
  %10 = getelementptr inbounds [5000 x i8], ptr %6, i64 0, i64 0
  %11 = load ptr, ptr %4, align 8, !tbaa !35
  %12 = getelementptr inbounds [1 x %struct.__va_list_tag], ptr %7, i64 0, i64 0
  %13 = call i32 @vsnprintf(ptr noundef %10, i64 noundef 5000, ptr noundef %11, ptr noundef %12) #3
  %14 = getelementptr inbounds [1 x %struct.__va_list_tag], ptr %7, i64 0, i64 0
  call void @llvm.va_end.p0(ptr %14)
  %15 = getelementptr inbounds [5000 x i8], ptr %6, i64 0, i64 0
  call void @_ZN14V3OutFormatter4putsEPKc(ptr noundef nonnull align 8 dereferenceable(164) %8, ptr noundef %15)
  call void @llvm.lifetime.end.p0(i64 24, ptr %7) #3
  call void @llvm.lifetime.end.p0(i64 5000, ptr %6) #3
  call void @llvm.lifetime.end.p0(i64 8, ptr %5) #3
  ret void
}