; Function Attrs: mustprogress uwtable
define dso_local void @_ZN14V3OutFormatter6printfEPKcz(ptr noundef nonnull align 8 dereferenceable(164) %0, ptr noundef readonly captures(none) %1, ...) local_unnamed_addr #4 align 2 {
  %3 = alloca [5000 x i8], align 16
  %4 = alloca [1 x %struct.__va_list_tag], align 16
  call void @llvm.lifetime.start.p0(i64 5000, ptr nonnull %3) #34
  call void @llvm.lifetime.start.p0(i64 24, ptr nonnull %4) #34
  call void @llvm.va_start.p0(ptr nonnull %4)
  %5 = call i32 @vsnprintf(ptr noundef nonnull %3, i64 noundef 5000, ptr noundef %1, ptr noundef nonnull %4) #34
  call void @llvm.va_end.p0(ptr nonnull %4)
  call void @_ZN14V3OutFormatter5putnsEPK7AstNodePKc(ptr noundef nonnull align 8 dereferenceable(164) %0, ptr noundef null, ptr noundef nonnull %3)
  call void @llvm.lifetime.end.p0(i64 24, ptr nonnull %4) #34
  call void @llvm.lifetime.end.p0(i64 5000, ptr nonnull %3) #34
  ret void
}